; Function Attrs: mustprogress uwtable
define void @_ZN4pugi12xml_document11load_bufferEPKvmjNS_12xml_encodingE(ptr noalias sret(%"struct.pugi::xml_parse_result") align 8 %agg.result, ptr noundef nonnull align 8 dereferenceable(208) %this, ptr noundef %contents, i64 noundef %size, i32 noundef %options, i32 noundef %encoding) local_unnamed_addr #6 align 2 {
entry:
  %_buffer.i.i = getelementptr inbounds i8, ptr %this, i64 8
  %0 = load ptr, ptr %_buffer.i.i, align 8
  %tobool.not.i.i = icmp eq ptr %0, null
  br i1 %tobool.not.i.i, label %if.end.i.i, label %if.then.i.i

if.then.i.i:                                      ; preds = %entry
  %1 = load ptr, ptr @_ZN4pugi4impl12_GLOBAL__N_138xml_memory_management_function_storageIiE10deallocateE, align 8
  tail call void %1(ptr noundef nonnull %0)
  store ptr null, ptr %_buffer.i.i, align 8
  br label %if.end.i.i

if.end.i.i:                                       ; preds = %if.then.i.i, %entry
  %2 = load ptr, ptr %this, align 8
  %extra_buffers.i.i = getelementptr inbounds i8, ptr %2, i64 88
  %extra.07.i.i = load ptr, ptr %extra_buffers.i.i, align 8
  %tobool4.not8.i.i = icmp eq ptr %extra.07.i.i, null
  br i1 %tobool4.not8.i.i, label %for.end.i.i, label %for.body.i.i

for.body.i.i:                                     ; preds = %if.end.i.i, %for.inc.i.i
  %extra.09.i.i = phi ptr [ %extra.0.i.i, %for.inc.i.i ], [ %extra.07.i.i, %if.end.i.i ]
  %3 = load ptr, ptr %extra.09.i.i, align 8
  %tobool5.not.i.i = icmp eq ptr %3, null
  br i1 %tobool5.not.i.i, label %for.inc.i.i, label %if.then6.i.i

if.then6.i.i:                                     ; preds = %for.body.i.i
  %4 = load ptr, ptr @_ZN4pugi4impl12_GLOBAL__N_138xml_memory_management_function_storageIiE10deallocateE, align 8
  tail call void %4(ptr noundef nonnull %3)
  br label %for.inc.i.i

for.inc.i.i:                                      ; preds = %if.then6.i.i, %for.body.i.i
  %next.i.i = getelementptr inbounds i8, ptr %extra.09.i.i, i64 8
  %extra.0.i.i = load ptr, ptr %next.i.i, align 8
  %tobool4.not.i.i = icmp eq ptr %extra.0.i.i, null
  br i1 %tobool4.not.i.i, label %for.end.loopexit.i.i, label %for.body.i.i, !llvm.loop !110

for.end.loopexit.i.i:                             ; preds = %for.inc.i.i
  %.pre.i.i = load ptr, ptr %this, align 8
  br label %for.end.i.i

for.end.i.i:                                      ; preds = %for.end.loopexit.i.i, %if.end.i.i
  %5 = phi ptr [ %.pre.i.i, %for.end.loopexit.i.i ], [ %2, %if.end.i.i ]
  %6 = load i64, ptr %5, align 8
  %shr.i.i = lshr i64 %6, 8
  %idx.neg.i.i = sub nsw i64 0, %shr.i.i
  %add.ptr.i.i = getelementptr inbounds i8, ptr %5, i64 %idx.neg.i.i
  %next12.i.i = getelementptr inbounds i8, ptr %add.ptr.i.i, i64 16
  %7 = load ptr, ptr %next12.i.i, align 8
  %tobool14.not10.i.i = icmp eq ptr %7, null
  br i1 %tobool14.not10.i.i, label %_ZN4pugi12xml_document5resetEv.exit, label %for.body15.i.i

for.body15.i.i:                                   ; preds = %for.end.i.i, %for.body15.i.i
  %page.011.i.i = phi ptr [ %8, %for.body15.i.i ], [ %7, %for.end.i.i ]
  %next17.i.i = getelementptr inbounds i8, ptr %page.011.i.i, i64 16
  %8 = load ptr, ptr %next17.i.i, align 8
  %9 = load ptr, ptr @_ZN4pugi4impl12_GLOBAL__N_138xml_memory_management_function_storageIiE10deallocateE, align 8
  tail call void %9(ptr noundef nonnull %page.011.i.i)
  %tobool14.not.i.i = icmp eq ptr %8, null
  br i1 %tobool14.not.i.i, label %_ZN4pugi12xml_document5resetEv.exit, label %for.body15.i.i, !llvm.loop !111

_ZN4pugi12xml_document5resetEv.exit:              ; preds = %for.body15.i.i, %for.end.i.i
  %_memory.i.i = getelementptr inbounds i8, ptr %this, i64 16
  %10 = getelementptr inbounds i8, ptr %this, i64 24
  tail call void @llvm.memset.p0.i64(ptr noundef nonnull align 8 dereferenceable(40) %10, i8 0, i64 32, i1 false)
  %busy_size.i.i = getelementptr inbounds i8, ptr %this, i64 40
  store i64 32728, ptr %busy_size.i.i, align 8
  %add.ptr.i1.i = getelementptr inbounds i8, ptr %this, i64 56
  %name.i.i.i.i = getelementptr inbounds i8, ptr %this, i64 64
  tail call void @llvm.memset.p0.i64(ptr noundef nonnull align 8 dereferenceable(56) %name.i.i.i.i, i8 0, i64 56, i1 false)
  store i64 10241, ptr %add.ptr.i1.i, align 8
  %11 = getelementptr inbounds i8, ptr %this, i64 120
  store ptr %_memory.i.i, ptr %11, align 8
  %_busy_size.i.i.i.i = getelementptr inbounds i8, ptr %this, i64 128
  store i64 32728, ptr %_busy_size.i.i.i.i, align 8
  %buffer.i.i.i = getelementptr inbounds i8, ptr %this, i64 136
  tail call void @llvm.memset.p0.i64(ptr noundef nonnull align 8 dereferenceable(16) %buffer.i.i.i, i8 0, i64 16, i1 false)
  store ptr %add.ptr.i1.i, ptr %this, align 8
  %prev_sibling_c.i.i = getelementptr inbounds i8, ptr %this, i64 96
  store ptr %add.ptr.i1.i, ptr %prev_sibling_c.i.i, align 8
  store ptr %11, ptr %_memory.i.i, align 8
  tail call fastcc void @_ZN4pugi4impl12_GLOBAL__N_116load_buffer_implEPNS1_19xml_document_structEPNS_15xml_node_structEPvmjNS_12xml_encodingEbbPPc(ptr noalias align 8 %agg.result, ptr noundef nonnull %add.ptr.i1.i, ptr noundef nonnull %add.ptr.i1.i, ptr noundef %contents, i64 noundef %size, i32 noundef %options, i32 noundef %encoding, i1 noundef zeroext false, i1 noundef zeroext false, ptr noundef nonnull %_buffer.i.i)
  ret void
}